target datalayout = "e-m:e-p270:32:32-p271:32:32-p272:64:64-i64:64-i128:128-f80:128-n8:16:32:64-S128"
target triple = "x86_64-pc-linux-gnu"

%struct.nstime_t = type { i64, i32 }
%struct._rpc_call_info_value = type { i32, i32, i32, i32, i32, i32, i32, i32, i32, i8, %struct.nstime_t, ptr }
%struct._packet_info = type { ptr, ptr, i32, i32, %struct.nstime_t, %struct.nstime_t, %struct.nstime_t, i8, ptr, ptr, ptr, ptr, %struct._address, %struct._address, %struct._address, %struct._address, %struct._address, %struct._address, i32, ptr, i8, [3 x i8], %struct.anon, i32, i32, i32, i32, ptr, i8, ptr, ptr, i16, i16, i32, i32, i16, i32, i32, ptr, ptr, ptr, i8, i8, i16, i16, i16, i32, i16, i16, ptr, ptr, ptr, ptr, ptr, i32, i32 }
%struct._address = type { i32, i32, ptr, ptr }
%struct.anon = type { i8, [3 x i8] }
%struct._frame_data = type <{ i32, i32, i32, i32, i32, [4 x i8], i64, ptr, ptr, ptr, i8, i16, [5 x i8], %struct.nstime_t, %struct.nstime_t, i32, i32 }>
%struct._nlm_msg_res_matched_data = type { i32, i32, %struct.nstime_t }

@hf_nlm_cookie = internal global i32 0, align 4
@hf_nlm_block = internal global i32 0, align 4
@hf_nlm_exclusive = internal global i32 0, align 4
@hf_nlm_reply_in = internal global i32 0, align 4
@nlm_match_msgres = internal global i8 0, align 1
@nlm_msg_res_matched = internal global ptr null, align 8
@nfs_fhandle_reqrep_matching = external global i8, align 1

; Function Attrs: null_pointer_is_valid sspstrong uwtable
define internal void @nlm_match_fhandle_request(ptr noundef %0, ptr noundef %1) #0 {
  %3 = alloca ptr, align 8
  %4 = alloca ptr, align 8
  %5 = alloca ptr, align 8
  store ptr %0, ptr %3, align 8
  store ptr %1, ptr %4, align 8
  call void @llvm.lifetime.start.p0(i64 8, ptr %5) #8
  %6 = load ptr, ptr @nlm_msg_res_matched, align 8
  %7 = load ptr, ptr %3, align 8
  %8 = getelementptr inbounds nuw %struct._packet_info, ptr %7, i32 0, i32 3
  %9 = load i32, ptr %8, align 4
  %10 = zext i32 %9 to i64
  %11 = inttoptr i64 %10 to ptr
  %12 = call ptr @wmem_map_lookup(ptr noundef %6, ptr noundef %11)
  store ptr %12, ptr %5, align 8
  %13 = load ptr, ptr %5, align 8
  %14 = icmp ne ptr %13, null
  br i1 %14, label %15, label %26

15:                                               ; preds = %2
  %16 = load ptr, ptr %5, align 8
  %17 = getelementptr inbounds nuw %struct._nlm_msg_res_matched_data, ptr %16, i32 0, i32 1
  %18 = load i32, ptr %17, align 4
  %19 = icmp ne i32 %18, 0
  br i1 %19, label %20, label %26

20:                                               ; preds = %15
  %21 = load ptr, ptr %3, align 8
  %22 = load ptr, ptr %4, align 8
  %23 = load ptr, ptr %5, align 8
  %24 = getelementptr inbounds nuw %struct._nlm_msg_res_matched_data, ptr %23, i32 0, i32 1
  %25 = load i32, ptr %24, align 4
  call void @dissect_fhandle_hidden(ptr noundef %21, ptr noundef %22, i32 noundef %25)
  br label %26

26:                                               ; preds = %20, %15, %2
  call void @llvm.lifetime.end.p0(i64 8, ptr %5) #8
  ret void
}

; Function Attrs: null_pointer_is_valid sspstrong uwtable
define internal void @nlm_print_msgres_request(ptr noundef %0, ptr noundef %1, ptr noundef %2) #0 {
  %4 = alloca ptr, align 8
  %5 = alloca ptr, align 8
  %6 = alloca ptr, align 8
  %7 = alloca ptr, align 8
  store ptr %0, ptr %4, align 8
  store ptr %1, ptr %5, align 8
  store ptr %2, ptr %6, align 8
  call void @llvm.lifetime.start.p0(i64 8, ptr %7) #8
  %8 = load ptr, ptr @nlm_msg_res_matched, align 8
  %9 = load ptr, ptr %4, align 8
  %10 = getelementptr inbounds nuw %struct._packet_info, ptr %9, i32 0, i32 3
  %11 = load i32, ptr %10, align 4
  %12 = zext i32 %11 to i64
  %13 = inttoptr i64 %12 to ptr
  %14 = call ptr @wmem_map_lookup(ptr noundef %8, ptr noundef %13)
  store ptr %14, ptr %7, align 8
  %15 = load ptr, ptr %7, align 8
  %16 = icmp ne ptr %15, null
  br i1 %16, label %17, label %25

17:                                               ; preds = %3
  %18 = load ptr, ptr %5, align 8
  %19 = load i32, ptr @hf_nlm_reply_in, align 4
  %20 = load ptr, ptr %6, align 8
  %21 = load ptr, ptr %7, align 8
  %22 = getelementptr inbounds nuw %struct._nlm_msg_res_matched_data, ptr %21, i32 0, i32 1
  %23 = load i32, ptr %22, align 4
  %24 = call ptr @proto_tree_add_uint(ptr noundef %18, i32 noundef %19, ptr noundef %20, i32 noundef 0, i32 noundef 0, i32 noundef %23)
  br label %25

25:                                               ; preds = %17, %3
  call void @llvm.lifetime.end.p0(i64 8, ptr %7) #8
  ret void
}

; Function Attrs: null_pointer_is_valid sspstrong uwtable
define internal i32 @dissect_nlm_cancel(ptr noundef %0, i32 noundef %1, ptr noundef %2, ptr noundef %3, i32 noundef %4, ptr noundef %5) #0 {
  %7 = alloca ptr, align 8
  %8 = alloca i32, align 4
  %9 = alloca ptr, align 8
  %10 = alloca ptr, align 8
  %11 = alloca i32, align 4
  %12 = alloca ptr, align 8
  store ptr %0, ptr %7, align 8
  store i32 %1, ptr %8, align 4
  store ptr %2, ptr %9, align 8
  store ptr %3, ptr %10, align 8
  store i32 %4, ptr %11, align 4
  store ptr %5, ptr %12, align 8
  %13 = load i8, ptr @nlm_match_msgres, align 1, !range !8, !noundef !9
  %14 = trunc i8 %13 to i1
  br i1 %14, label %15, label %46

15:                                               ; preds = %6
  %16 = load ptr, ptr %12, align 8
  %17 = getelementptr inbounds nuw %struct._rpc_call_info_value, ptr %16, i32 0, i32 4
  %18 = load i32, ptr %17, align 8
  %19 = icmp eq i32 %18, 8
  br i1 %19, label %20, label %45

20:                                               ; preds = %15
  %21 = load ptr, ptr %9, align 8
  %22 = getelementptr inbounds nuw %struct._packet_info, ptr %21, i32 0, i32 8
  %23 = load ptr, ptr %22, align 8
  %24 = getelementptr inbounds nuw %struct._frame_data, ptr %23, i32 0, i32 11
  %25 = load i16, ptr %24, align 1
  %26 = lshr i16 %25, 3
  %27 = and i16 %26, 1
  %28 = zext i16 %27 to i32
  %29 = icmp ne i32 %28, 0
  br i1 %29, label %34, label %30

30:                                               ; preds = %20
  %31 = load ptr, ptr %9, align 8
  %32 = load ptr, ptr %7, align 8
  %33 = load i32, ptr %8, align 4
  call void @nlm_register_unmatched_msg(ptr noundef %31, ptr noundef %32, i32 noundef %33)
  br label %38

34:                                               ; preds = %20
  %35 = load ptr, ptr %9, align 8
  %36 = load ptr, ptr %10, align 8
  %37 = load ptr, ptr %7, align 8
  call void @nlm_print_msgres_request(ptr noundef %35, ptr noundef %36, ptr noundef %37)
  br label %38

38:                                               ; preds = %34, %30
  %39 = load i8, ptr @nfs_fhandle_reqrep_matching, align 1, !range !8, !noundef !9
  %40 = trunc i8 %39 to i1
  br i1 %40, label %41, label %44

41:                                               ; preds = %38
  %42 = load ptr, ptr %9, align 8
  %43 = load ptr, ptr %10, align 8
  call void @nlm_match_fhandle_request(ptr noundef %42, ptr noundef %43)
  br label %44

44:                                               ; preds = %41, %38
  br label %45

45:                                               ; preds = %44, %15
  br label %46

46:                                               ; preds = %45, %6
  %47 = load ptr, ptr %7, align 8
  %48 = load ptr, ptr %10, align 8
  %49 = load i32, ptr @hf_nlm_cookie, align 4
  %50 = load i32, ptr %8, align 4
  %51 = call i32 @dissect_rpc_data(ptr noundef %47, ptr noundef %48, i32 noundef %49, i32 noundef %50)
  store i32 %51, ptr %8, align 4
  %52 = load ptr, ptr %7, align 8
  %53 = load ptr, ptr %10, align 8
  %54 = load i32, ptr @hf_nlm_block, align 4
  %55 = load i32, ptr %8, align 4
  %56 = call i32 @dissect_rpc_bool(ptr noundef %52, ptr noundef %53, i32 noundef %54, i32 noundef %55)
  store i32 %56, ptr %8, align 4
  %57 = load ptr, ptr %7, align 8
  %58 = load ptr, ptr %10, align 8
  %59 = load i32, ptr @hf_nlm_exclusive, align 4
  %60 = load i32, ptr %8, align 4
  %61 = call i32 @dissect_rpc_bool(ptr noundef %57, ptr noundef %58, i32 noundef %59, i32 noundef %60)
  store i32 %61, ptr %8, align 4
  %62 = load ptr, ptr %7, align 8
  %63 = load ptr, ptr %9, align 8
  %64 = load ptr, ptr %10, align 8
  %65 = load i32, ptr %11, align 4
  %66 = load i32, ptr %8, align 4
  %67 = load ptr, ptr %12, align 8
  %68 = call i32 @dissect_lock(ptr noundef %62, ptr noundef %63, ptr noundef %64, i32 noundef %65, i32 noundef %66, ptr noundef %67)
  store i32 %68, ptr %8, align 4
  %69 = load i32, ptr %8, align 4
  ret i32 %69
}