; Function Attrs: null_pointer_is_valid sspstrong uwtable
define internal fastcc i32 @dissect_nlm_cancel(ptr noundef %0, ptr noundef %1, ptr noundef %2, i32 noundef range(i32 1, 5) %3, ptr noundef %4) unnamed_addr #0 {
  %6 = load i8, ptr @nlm_match_msgres, align 1, !range !8, !noundef !9
  %7 = trunc nuw i8 %6 to i1
  br i1 %7, label %8, label %nlm_match_fhandle_request.exit

8:                                                ; preds = %5
  %9 = getelementptr inbounds nuw i8, ptr %4, i64 16
  %10 = load i32, ptr %9, align 8
  %11 = icmp eq i32 %10, 8
  br i1 %11, label %12, label %nlm_match_fhandle_request.exit

12:                                               ; preds = %8
  %13 = getelementptr inbounds nuw i8, ptr %1, i64 80
  %14 = load ptr, ptr %13, align 8
  %15 = getelementptr inbounds nuw i8, ptr %14, i64 57
  %16 = load i16, ptr %15, align 1
  %17 = and i16 %16, 8
  %.not = icmp eq i16 %17, 0
  br i1 %.not, label %18, label %19

18:                                               ; preds = %12
  tail call fastcc void @nlm_register_unmatched_msg(ptr noundef %1, ptr noundef %0)
  br label %nlm_print_msgres_request.exit

19:                                               ; preds = %12
  %20 = getelementptr i8, ptr %1, i64 20
  %.val = load i32, ptr %20, align 4
  %21 = load ptr, ptr @nlm_msg_res_matched, align 8
  %22 = zext i32 %.val to i64
  %23 = inttoptr i64 %22 to ptr
  %24 = tail call ptr @wmem_map_lookup(ptr noundef %21, ptr noundef %23)
  %.not.i = icmp eq ptr %24, null
  br i1 %.not.i, label %nlm_print_msgres_request.exit, label %25

25:                                               ; preds = %19
  %26 = load i32, ptr @hf_nlm_reply_in, align 4
  %27 = getelementptr inbounds nuw i8, ptr %24, i64 4
  %28 = load i32, ptr %27, align 4
  %29 = tail call ptr @proto_tree_add_uint(ptr noundef %2, i32 noundef %26, ptr noundef %0, i32 noundef 0, i32 noundef 0, i32 noundef %28)
  br label %nlm_print_msgres_request.exit

nlm_print_msgres_request.exit:                    ; preds = %25, %19, %18
  %30 = load i8, ptr @nfs_fhandle_reqrep_matching, align 1, !range !8, !noundef !9
  %31 = trunc nuw i8 %30 to i1
  br i1 %31, label %32, label %nlm_match_fhandle_request.exit

32:                                               ; preds = %nlm_print_msgres_request.exit
  %33 = load ptr, ptr @nlm_msg_res_matched, align 8
  %34 = getelementptr inbounds nuw i8, ptr %1, i64 20
  %35 = load i32, ptr %34, align 4
  %36 = zext i32 %35 to i64
  %37 = inttoptr i64 %36 to ptr
  %38 = tail call ptr @wmem_map_lookup(ptr noundef %33, ptr noundef %37)
  %.not.i25 = icmp eq ptr %38, null
  br i1 %.not.i25, label %nlm_match_fhandle_request.exit, label %39

39:                                               ; preds = %32
  %40 = getelementptr inbounds nuw i8, ptr %38, i64 4
  %41 = load i32, ptr %40, align 4
  %.not7.i = icmp eq i32 %41, 0
  br i1 %.not7.i, label %nlm_match_fhandle_request.exit, label %42

42:                                               ; preds = %39
  tail call void @dissect_fhandle_hidden(ptr noundef %1, ptr noundef %2, i32 noundef %41)
  br label %nlm_match_fhandle_request.exit

nlm_match_fhandle_request.exit:                   ; preds = %42, %39, %32, %8, %nlm_print_msgres_request.exit, %5
  %43 = load i32, ptr @hf_nlm_cookie, align 4
  %44 = tail call i32 @dissect_rpc_data(ptr noundef %0, ptr noundef %2, i32 noundef %43, i32 noundef 0)
  %45 = load i32, ptr @hf_nlm_block, align 4
  %46 = tail call i32 @dissect_rpc_bool(ptr noundef %0, ptr noundef %2, i32 noundef %45, i32 noundef %44)
  %47 = load i32, ptr @hf_nlm_exclusive, align 4
  %48 = tail call i32 @dissect_rpc_bool(ptr noundef %0, ptr noundef %2, i32 noundef %47, i32 noundef %46)
  %49 = tail call fastcc i32 @dissect_lock(ptr noundef %0, ptr noundef %1, ptr noundef %2, i32 noundef %3, i32 noundef %48, ptr noundef %4)
  ret i32 %49
}